; Function Attrs: nofree norecurse nosync nounwind memory(readwrite, inaccessiblemem: none) uwtable
define internal void @BlitARGBto565PixelAlpha(ptr noundef readonly captures(none) %0) #2 {
  %2 = getelementptr inbounds nuw i8, ptr %0, i64 52
  %3 = load i32, ptr %2, align 4
  %.not131 = icmp eq i32 %3, 0
  br i1 %.not131, label %._crit_edge, label %.lr.ph

.lr.ph:                                           ; preds = %1
  %4 = getelementptr inbounds nuw i8, ptr %0, i64 60
  %5 = load i32, ptr %4, align 4
  %6 = ashr i32 %5, 1
  %7 = getelementptr inbounds nuw i8, ptr %0, i64 40
  %8 = load ptr, ptr %7, align 8
  %9 = getelementptr inbounds nuw i8, ptr %0, i64 28
  %10 = load i32, ptr %9, align 4
  %11 = ashr i32 %10, 2
  %12 = getelementptr inbounds nuw i8, ptr %0, i64 8
  %13 = load ptr, ptr %12, align 8
  %14 = getelementptr inbounds nuw i8, ptr %0, i64 48
  %15 = load i32, ptr %14, align 8
  %16 = add nsw i32 %15, 3
  %17 = sdiv i32 %16, 4
  %18 = and i32 %15, 3
  %19 = sext i32 %11 to i64
  %20 = sext i32 %6 to i64
  br label %21

21:                                               ; preds = %.lr.ph, %181
  %.in = phi i32 [ %3, %.lr.ph ], [ %22, %181 ]
  %.0109133 = phi ptr [ %13, %.lr.ph ], [ %182, %181 ]
  %.0110132 = phi ptr [ %8, %.lr.ph ], [ %183, %181 ]
  %22 = add nsw i32 %.in, -1
  switch i32 %18, label %default.unreachable134 [
    i32 0, label %23
    i32 3, label %62
    i32 2, label %101
    i32 1, label %140
  ]

23:                                               ; preds = %21, %176
  %.3118 = phi i32 [ %179, %176 ], [ %17, %21 ]
  %.4114 = phi ptr [ %178, %176 ], [ %.0110132, %21 ]
  %.4 = phi ptr [ %177, %176 ], [ %.0109133, %21 ]
  %24 = load i32, ptr %.4, align 4
  %25 = lshr i32 %24, 27
  %.not124 = icmp ult i32 %24, 134217728
  br i1 %.not124, label %59, label %26

26:                                               ; preds = %23
  %27 = icmp eq i32 %25, 31
  br i1 %27, label %28, label %37

28:                                               ; preds = %26
  %29 = lshr i32 %24, 8
  %30 = and i32 %29, 63488
  %31 = lshr i32 %24, 5
  %32 = and i32 %31, 2016
  %33 = or disjoint i32 %30, %32
  %34 = lshr i32 %24, 3
  %35 = and i32 %34, 31
  %36 = or disjoint i32 %33, %35
  br label %.sink.split

37:                                               ; preds = %26
  %38 = load i16, ptr %.4114, align 2
  %39 = zext i16 %38 to i32
  %40 = shl i32 %24, 11
  %41 = and i32 %40, 132120576
  %42 = lshr i32 %24, 8
  %43 = and i32 %42, 63488
  %44 = or disjoint i32 %41, %43
  %45 = lshr i32 %24, 3
  %46 = and i32 %45, 31
  %47 = or disjoint i32 %44, %46
  %48 = shl nuw i32 %39, 16
  %49 = or disjoint i32 %48, %39
  %50 = and i32 %49, 132184095
  %51 = sub nsw i32 %47, %50
  %52 = mul i32 %51, %25
  %53 = lshr i32 %52, 5
  %54 = add nuw nsw i32 %53, %50
  %55 = and i32 %54, 132184095
  %56 = lshr i32 %55, 16
  %57 = or disjoint i32 %56, %55
  br label %.sink.split

.sink.split:                                      ; preds = %37, %28
  %.sink135 = phi i32 [ %36, %28 ], [ %57, %37 ]
  %58 = trunc i32 %.sink135 to i16
  store i16 %58, ptr %.4114, align 2
  br label %59

59:                                               ; preds = %.sink.split, %23
  %60 = getelementptr inbounds nuw i8, ptr %.4, i64 4
  %61 = getelementptr inbounds nuw i8, ptr %.4114, i64 2
  br label %62

62:                                               ; preds = %59, %21
  %.0115 = phi i32 [ %.3118, %59 ], [ %17, %21 ]
  %.1111 = phi ptr [ %61, %59 ], [ %.0110132, %21 ]
  %.1 = phi ptr [ %60, %59 ], [ %.0109133, %21 ]
  %63 = load i32, ptr %.1, align 4
  %64 = lshr i32 %63, 27
  %.not125 = icmp ult i32 %63, 134217728
  br i1 %.not125, label %98, label %65

65:                                               ; preds = %62
  %66 = icmp eq i32 %64, 31
  br i1 %66, label %67, label %76

67:                                               ; preds = %65
  %68 = lshr i32 %63, 8
  %69 = and i32 %68, 63488
  %70 = lshr i32 %63, 5
  %71 = and i32 %70, 2016
  %72 = or disjoint i32 %69, %71
  %73 = lshr i32 %63, 3
  %74 = and i32 %73, 31
  %75 = or disjoint i32 %72, %74
  br label %.sink.split136

76:                                               ; preds = %65
  %77 = load i16, ptr %.1111, align 2
  %78 = zext i16 %77 to i32
  %79 = shl i32 %63, 11
  %80 = and i32 %79, 132120576
  %81 = lshr i32 %63, 8
  %82 = and i32 %81, 63488
  %83 = or disjoint i32 %80, %82
  %84 = lshr i32 %63, 3
  %85 = and i32 %84, 31
  %86 = or disjoint i32 %83, %85
  %87 = shl nuw i32 %78, 16
  %88 = or disjoint i32 %87, %78
  %89 = and i32 %88, 132184095
  %90 = sub nsw i32 %86, %89
  %91 = mul i32 %90, %64
  %92 = lshr i32 %91, 5
  %93 = add nuw nsw i32 %92, %89
  %94 = and i32 %93, 132184095
  %95 = lshr i32 %94, 16
  %96 = or disjoint i32 %95, %94
  br label %.sink.split136

.sink.split136:                                   ; preds = %76, %67
  %.sink137 = phi i32 [ %75, %67 ], [ %96, %76 ]
  %97 = trunc i32 %.sink137 to i16
  store i16 %97, ptr %.1111, align 2
  br label %98

98:                                               ; preds = %.sink.split136, %62
  %99 = getelementptr inbounds nuw i8, ptr %.1, i64 4
  %100 = getelementptr inbounds nuw i8, ptr %.1111, i64 2
  br label %101

101:                                              ; preds = %98, %21
  %.1116 = phi i32 [ %.0115, %98 ], [ %17, %21 ]
  %.2112 = phi ptr [ %100, %98 ], [ %.0110132, %21 ]
  %.2 = phi ptr [ %99, %98 ], [ %.0109133, %21 ]
  %102 = load i32, ptr %.2, align 4
  %103 = lshr i32 %102, 27
  %.not126 = icmp ult i32 %102, 134217728
  br i1 %.not126, label %137, label %104

104:                                              ; preds = %101
  %105 = icmp eq i32 %103, 31
  br i1 %105, label %106, label %115

106:                                              ; preds = %104
  %107 = lshr i32 %102, 8
  %108 = and i32 %107, 63488
  %109 = lshr i32 %102, 5
  %110 = and i32 %109, 2016
  %111 = or disjoint i32 %108, %110
  %112 = lshr i32 %102, 3
  %113 = and i32 %112, 31
  %114 = or disjoint i32 %111, %113
  br label %.sink.split138

115:                                              ; preds = %104
  %116 = load i16, ptr %.2112, align 2
  %117 = zext i16 %116 to i32
  %118 = shl i32 %102, 11
  %119 = and i32 %118, 132120576
  %120 = lshr i32 %102, 8
  %121 = and i32 %120, 63488
  %122 = or disjoint i32 %119, %121
  %123 = lshr i32 %102, 3
  %124 = and i32 %123, 31
  %125 = or disjoint i32 %122, %124
  %126 = shl nuw i32 %117, 16
  %127 = or disjoint i32 %126, %117
  %128 = and i32 %127, 132184095
  %129 = sub nsw i32 %125, %128
  %130 = mul i32 %129, %103
  %131 = lshr i32 %130, 5
  %132 = add nuw nsw i32 %131, %128
  %133 = and i32 %132, 132184095
  %134 = lshr i32 %133, 16
  %135 = or disjoint i32 %134, %133
  br label %.sink.split138

.sink.split138:                                   ; preds = %115, %106
  %.sink139 = phi i32 [ %114, %106 ], [ %135, %115 ]
  %136 = trunc i32 %.sink139 to i16
  store i16 %136, ptr %.2112, align 2
  br label %137

137:                                              ; preds = %.sink.split138, %101
  %138 = getelementptr inbounds nuw i8, ptr %.2, i64 4
  %139 = getelementptr inbounds nuw i8, ptr %.2112, i64 2
  br label %140

140:                                              ; preds = %137, %21
  %.2117 = phi i32 [ %17, %21 ], [ %.1116, %137 ]
  %.3113 = phi ptr [ %.0110132, %21 ], [ %139, %137 ]
  %.3 = phi ptr [ %.0109133, %21 ], [ %138, %137 ]
  %141 = load i32, ptr %.3, align 4
  %142 = lshr i32 %141, 27
  %.not127 = icmp ult i32 %141, 134217728
  br i1 %.not127, label %176, label %143

143:                                              ; preds = %140
  %144 = icmp eq i32 %142, 31
  br i1 %144, label %145, label %154

145:                                              ; preds = %143
  %146 = lshr i32 %141, 8
  %147 = and i32 %146, 63488
  %148 = lshr i32 %141, 5
  %149 = and i32 %148, 2016
  %150 = or disjoint i32 %147, %149
  %151 = lshr i32 %141, 3
  %152 = and i32 %151, 31
  %153 = or disjoint i32 %150, %152
  br label %.sink.split140

154:                                              ; preds = %143
  %155 = load i16, ptr %.3113, align 2
  %156 = zext i16 %155 to i32
  %157 = shl i32 %141, 11
  %158 = and i32 %157, 132120576
  %159 = lshr i32 %141, 8
  %160 = and i32 %159, 63488
  %161 = or disjoint i32 %158, %160
  %162 = lshr i32 %141, 3
  %163 = and i32 %162, 31
  %164 = or disjoint i32 %161, %163
  %165 = shl nuw i32 %156, 16
  %166 = or disjoint i32 %165, %156
  %167 = and i32 %166, 132184095
  %168 = sub nsw i32 %164, %167
  %169 = mul i32 %168, %142
  %170 = lshr i32 %169, 5
  %171 = add nuw nsw i32 %170, %167
  %172 = and i32 %171, 132184095
  %173 = lshr i32 %172, 16
  %174 = or disjoint i32 %173, %172
  br label %.sink.split140

.sink.split140:                                   ; preds = %154, %145
  %.sink141 = phi i32 [ %153, %145 ], [ %174, %154 ]
  %175 = trunc i32 %.sink141 to i16
  store i16 %175, ptr %.3113, align 2
  br label %176

176:                                              ; preds = %.sink.split140, %140
  %177 = getelementptr inbounds nuw i8, ptr %.3, i64 4
  %178 = getelementptr inbounds nuw i8, ptr %.3113, i64 2
  %179 = add nsw i32 %.2117, -1
  %180 = icmp sgt i32 %.2117, 1
  br i1 %180, label %23, label %181, !llvm.loop !8

default.unreachable134:                           ; preds = %21
  unreachable

181:                                              ; preds = %176
  %182 = getelementptr inbounds i32, ptr %177, i64 %19
  %183 = getelementptr inbounds i16, ptr %178, i64 %20
  %.not = icmp eq i32 %22, 0
  br i1 %.not, label %._crit_edge, label %21, !llvm.loop !9

._crit_edge:                                      ; preds = %181, %1
  ret void
}